target datalayout = "e-m:e-p270:32:32-p271:32:32-p272:64:64-i64:64-i128:128-f80:128-n8:16:32:64-S128"
target triple = "x86_64-pc-linux-gnu"

; Function Attrs: nounwind uwtable
define internal void @_gui_preferences_enum_callback(ptr noundef %0, ptr noundef %1) #0 {
  %3 = alloca ptr, align 8
  %4 = alloca ptr, align 8
  %5 = alloca ptr, align 8
  %6 = alloca ptr, align 8
  store ptr %0, ptr %3, align 8, !tbaa !6
  store ptr %1, ptr %4, align 8, !tbaa !61
  call void @llvm.lifetime.start.p0(i64 8, ptr %5) #10
  %7 = load ptr, ptr %3, align 8, !tbaa !6
  %8 = call ptr @dt_bauhaus_combobox_get_data(ptr noundef %7)
  store ptr %8, ptr %5, align 8, !tbaa !73
  %9 = load ptr, ptr %5, align 8, !tbaa !73
  %10 = icmp ne ptr %9, null
  br i1 %10, label %11, label %23

11:                                               ; preds = %2
  call void @llvm.lifetime.start.p0(i64 8, ptr %6) #10
  %12 = load ptr, ptr %5, align 8, !tbaa !73
  %13 = load ptr, ptr %5, align 8, !tbaa !73
  %14 = call ptr @strchr(ptr noundef %13, i32 noundef 93) #12
  %15 = load ptr, ptr %5, align 8, !tbaa !73
  %16 = ptrtoint ptr %14 to i64
  %17 = ptrtoint ptr %15 to i64
  %18 = sub i64 %16, %17
  %19 = call noalias ptr @g_strndup(ptr noundef %12, i64 noundef %18)
  store ptr %19, ptr %6, align 8, !tbaa !73
  %20 = load ptr, ptr %4, align 8, !tbaa !61
  %21 = load ptr, ptr %6, align 8, !tbaa !73
  call void @dt_conf_set_string(ptr noundef %20, ptr noundef %21)
  %22 = load ptr, ptr %6, align 8, !tbaa !73
  call void @g_free(ptr noundef %22)
  call void @llvm.lifetime.end.p0(i64 8, ptr %6) #10
  br label %23

23:                                               ; preds = %11, %2
  call void @llvm.lifetime.end.p0(i64 8, ptr %5) #10
  ret void
}