; Function Attrs: nounwind uwtable
define internal void @_gui_preferences_enum_callback(ptr noundef %0, ptr noundef %1) #0 {
  %3 = tail call ptr @dt_bauhaus_combobox_get_data(ptr noundef %0) #12
  %.not = icmp eq ptr %3, null
  br i1 %.not, label %10, label %4

4:                                                ; preds = %2
  %5 = tail call ptr @strchr(ptr noundef nonnull dereferenceable(1) %3, i32 noundef 93) #14
  %6 = ptrtoint ptr %5 to i64
  %7 = ptrtoint ptr %3 to i64
  %8 = sub i64 %6, %7
  %9 = tail call noalias ptr @g_strndup(ptr noundef nonnull %3, i64 noundef %8) #12
  tail call void @dt_conf_set_string(ptr noundef %1, ptr noundef %9) #12
  tail call void @g_free(ptr noundef %9) #12
  br label %10

10:                                               ; preds = %4, %2
  ret void
}